target datalayout = "e-m:e-p270:32:32-p271:32:32-p272:64:64-i64:64-i128:128-f80:128-n8:16:32:64-S128"
target triple = "x86_64-pc-linux-gnu"

%"class.boost::container::pmr::pool_resource" = type { %"struct.boost::container::pmr::pool_options", ptr, %"class.boost::container::pmr::block_list_base", ptr, i64 }
%"struct.boost::container::pmr::pool_options" = type { i64, i64 }
%"class.boost::container::pmr::block_list_base" = type { %"struct.boost::container::pmr::list_node" }
%"struct.boost::container::pmr::list_node" = type { ptr, ptr }
%"class.boost::container::pmr::pool_data_t" = type { %"class.boost::container::pmr::block_slist_base", %"struct.boost::container::pmr::slist_node", i64 }
%"class.boost::container::pmr::block_slist_base" = type { %"struct.boost::container::pmr::slist_node" }
%"struct.boost::container::pmr::slist_node" = type { ptr }

; Function Attrs: mustprogress nounwind uwtable
define linkonce_odr hidden noundef ptr @_ZN5boost9container3pmr17slist_node_traits8get_nextEPKNS1_10slist_nodeE(ptr noundef %0) #1 comdat align 2 {
  %2 = alloca ptr, align 8
  store ptr %0, ptr %2, align 8, !tbaa !3
  %3 = load ptr, ptr %2, align 8, !tbaa !3
  %4 = getelementptr inbounds nuw %"struct.boost::container::pmr::slist_node", ptr %3, i32 0, i32 0
  %5 = load ptr, ptr %4, align 8, !tbaa !35
  ret ptr %5
}

; Function Attrs: mustprogress nounwind uwtable
define linkonce_odr hidden noundef i64 @_ZN5boost9intrusive23linear_slist_algorithmsINS_9container3pmr17slist_node_traitsEE5countEPKNS3_10slist_nodeE(ptr noundef %0) #1 comdat align 2 {
  %2 = alloca ptr, align 8
  %3 = alloca i64, align 8
  %4 = alloca ptr, align 8
  store ptr %0, ptr %2, align 8, !tbaa !3
  call void @llvm.lifetime.start.p0(i64 8, ptr %3) #13
  store i64 0, ptr %3, align 8, !tbaa !7
  call void @llvm.lifetime.start.p0(i64 8, ptr %4) #13
  %5 = load ptr, ptr %2, align 8, !tbaa !3
  store ptr %5, ptr %4, align 8, !tbaa !3
  br label %6

6:                                                ; preds = %11, %1
  %7 = load ptr, ptr %4, align 8, !tbaa !3
  %8 = call noundef ptr @_ZN5boost9container3pmr17slist_node_traits8get_nextEPKNS1_10slist_nodeE(ptr noundef %7)
  store ptr %8, ptr %4, align 8, !tbaa !3
  %9 = load i64, ptr %3, align 8, !tbaa !7
  %10 = add i64 %9, 1
  store i64 %10, ptr %3, align 8, !tbaa !7
  br label %11

11:                                               ; preds = %6
  %12 = load ptr, ptr %4, align 8, !tbaa !3
  %13 = icmp ne ptr %12, null
  br i1 %13, label %6, label %14, !llvm.loop !42

14:                                               ; preds = %11
  %15 = load i64, ptr %3, align 8, !tbaa !7
  call void @llvm.lifetime.end.p0(i64 8, ptr %4) #13
  call void @llvm.lifetime.end.p0(i64 8, ptr %3) #13
  ret i64 %15
}

; Function Attrs: mustprogress nounwind uwtable
define linkonce_odr hidden noundef i64 @_ZNK5boost9container3pmr11pool_data_t11cache_countEv(ptr noundef nonnull align 8 dereferenceable(24) %0) #1 comdat align 2 {
  %2 = alloca ptr, align 8
  store ptr %0, ptr %2, align 8, !tbaa !3
  %3 = load ptr, ptr %2, align 8
  %4 = getelementptr inbounds nuw %"class.boost::container::pmr::pool_data_t", ptr %3, i32 0, i32 1
  %5 = call noundef i64 @_ZN5boost9intrusive23linear_slist_algorithmsINS_9container3pmr17slist_node_traitsEE5countEPKNS3_10slist_nodeE(ptr noundef %4) #13
  %6 = sub i64 %5, 1
  ret i64 %6
}

; Function Attrs: mustprogress uwtable
define hidden noundef i64 @_ZNK5boost9container3pmr13pool_resource18pool_cached_blocksEm(ptr noundef nonnull align 8 dereferenceable(56) %0, i64 noundef %1) #0 align 2 {
  %3 = alloca i64, align 8
  %4 = alloca ptr, align 8
  %5 = alloca i64, align 8
  store ptr %0, ptr %4, align 8, !tbaa !3
  store i64 %1, ptr %5, align 8, !tbaa !7
  %6 = load ptr, ptr %4, align 8
  %7 = getelementptr inbounds nuw %"class.boost::container::pmr::pool_resource", ptr %6, i32 0, i32 3
  %8 = load ptr, ptr %7, align 8, !tbaa !15
  %9 = icmp ne ptr %8, null
  br i1 %9, label %10, label %15

10:                                               ; preds = %2
  %11 = load i64, ptr %5, align 8, !tbaa !7
  %12 = getelementptr inbounds nuw %"class.boost::container::pmr::pool_resource", ptr %6, i32 0, i32 4
  %13 = load i64, ptr %12, align 8, !tbaa !18
  %14 = icmp ult i64 %11, %13
  br label %15

15:                                               ; preds = %10, %2
  %16 = phi i1 [ false, %2 ], [ %14, %10 ]
  %17 = zext i1 %16 to i64
  %18 = call i64 @llvm.expect.i64(i64 %17, i64 1)
  %19 = icmp ne i64 %18, 0
  br i1 %19, label %20, label %26

20:                                               ; preds = %15
  %21 = getelementptr inbounds nuw %"class.boost::container::pmr::pool_resource", ptr %6, i32 0, i32 3
  %22 = load ptr, ptr %21, align 8, !tbaa !15
  %23 = load i64, ptr %5, align 8, !tbaa !7
  %24 = getelementptr inbounds nuw %"class.boost::container::pmr::pool_data_t", ptr %22, i64 %23
  %25 = call noundef i64 @_ZNK5boost9container3pmr11pool_data_t11cache_countEv(ptr noundef nonnull align 8 dereferenceable(24) %24)
  store i64 %25, ptr %3, align 8
  br label %27

26:                                               ; preds = %15
  store i64 0, ptr %3, align 8
  br label %27

27:                                               ; preds = %26, %20
  %28 = load i64, ptr %3, align 8
  ret i64 %28
}