; Function Attrs: mustprogress nofree norecurse nosync nounwind willreturn memory(read, inaccessiblemem: none) uwtable
define hidden noundef i64 @_ZNK5boost9container3pmr13pool_resource18pool_cached_blocksEm(ptr nocapture noundef nonnull readonly align 8 dereferenceable(56) %0, i64 noundef %1) local_unnamed_addr #10 align 2 {
  %3 = getelementptr inbounds nuw i8, ptr %0, i64 40
  %4 = load ptr, ptr %3, align 8, !tbaa !16
  %.not = icmp ne ptr %4, null
  %5 = getelementptr inbounds nuw i8, ptr %0, i64 48
  %6 = load i64, ptr %5, align 8
  %7 = icmp ult i64 %1, %6
  %8 = select i1 %.not, i1 %7, i1 false
  br i1 %8, label %9, label %_ZNK5boost9container3pmr11pool_data_t11cache_countEv.exit, !prof !37

9:                                                ; preds = %2
  %10 = getelementptr inbounds nuw %"class.boost::container::pmr::pool_data_t", ptr %4, i64 %1, i32 1
  br label %11

11:                                               ; preds = %11, %9
  %.04.i.i = phi i64 [ 0, %9 ], [ %13, %11 ]
  %.0.i.i = phi ptr [ %10, %9 ], [ %12, %11 ]
  %12 = load ptr, ptr %.0.i.i, align 8, !tbaa !18
  %13 = add i64 %.04.i.i, 1
  %.not.i.i = icmp eq ptr %12, null
  br i1 %.not.i.i, label %_ZNK5boost9container3pmr11pool_data_t11cache_countEv.exit, label %11, !llvm.loop !38

_ZNK5boost9container3pmr11pool_data_t11cache_countEv.exit: ; preds = %11, %2
  %.0 = phi i64 [ 0, %2 ], [ %.04.i.i, %11 ]
  ret i64 %.0
}